target datalayout = "e-m:e-p270:32:32-p271:32:32-p272:64:64-i64:64-i128:128-f80:128-n8:16:32:64-S128"
target triple = "x86_64-pc-linux-gnu"

%struct.Aig_Obj_t_ = type { %union.anon, ptr, ptr, i64, i32, i32, %union.anon.0 }
%union.anon = type { ptr }
%union.anon.0 = type { ptr }
%struct.Aig_Man_t_ = type { ptr, ptr, ptr, ptr, ptr, ptr, ptr, %struct.Aig_Obj_t_, i32, i32, i32, i32, i32, i32, [7 x i32], i32, ptr, i32, ptr, i32, ptr, i32, i32, i32, ptr, i32, i32, i32, i32, i32, ptr, ptr, i32, ptr, ptr, i32, ptr, ptr, i32, i32, i32, ptr, ptr, ptr, ptr, ptr, ptr, ptr, ptr, ptr, ptr, ptr, ptr, ptr, ptr, i32, ptr, ptr, ptr, ptr, i32, i64, i64, i64, ptr, ptr }

@.str.12 = private unnamed_addr constant [43 x i8] c"Network \22%s\22 contains combinational loop!\0A\00", align 1
@.str.13 = private unnamed_addr constant [66 x i8] c"Node \22%d\22 is encountered twice on the following path to the COs:\0A\00", align 1
@.str.14 = private unnamed_addr constant [7 x i8] c" %d ->\00", align 1
@.str.15 = private unnamed_addr constant [4 x i8] c" %d\00", align 1
@.str.16 = private unnamed_addr constant [20 x i8] c" (choice of %d) -> \00", align 1

; Function Attrs: nounwind uwtable
define internal ptr @Aig_Regular(ptr noundef %0) #0 {
  %2 = alloca ptr, align 8
  store ptr %0, ptr %2, align 8
  %3 = load ptr, ptr %2, align 8
  %4 = ptrtoint ptr %3 to i64
  %5 = and i64 %4, -2
  %6 = inttoptr i64 %5 to ptr
  ret ptr %6
}

; Function Attrs: nounwind uwtable
define internal void @Aig_ObjSetTravIdPrevious(ptr noundef %0, ptr noundef %1) #0 {
  %3 = alloca ptr, align 8
  %4 = alloca ptr, align 8
  store ptr %0, ptr %3, align 8
  store ptr %1, ptr %4, align 8
  %5 = load ptr, ptr %3, align 8
  %6 = getelementptr inbounds %struct.Aig_Man_t_, ptr %5, i32 0, i32 38
  %7 = load i32, ptr %6, align 8
  %8 = sub nsw i32 %7, 1
  %9 = load ptr, ptr %4, align 8
  %10 = getelementptr inbounds %struct.Aig_Obj_t_, ptr %9, i32 0, i32 4
  store i32 %8, ptr %10, align 8
  ret void
}

; Function Attrs: nounwind uwtable
define internal ptr @Aig_ObjEquiv(ptr noundef %0, ptr noundef %1) #0 {
  %3 = alloca ptr, align 8
  %4 = alloca ptr, align 8
  store ptr %0, ptr %3, align 8
  store ptr %1, ptr %4, align 8
  %5 = load ptr, ptr %3, align 8
  %6 = getelementptr inbounds %struct.Aig_Man_t_, ptr %5, i32 0, i32 30
  %7 = load ptr, ptr %6, align 8
  %8 = icmp ne ptr %7, null
  br i1 %8, label %9, label %19

9:                                                ; preds = %2
  %10 = load ptr, ptr %3, align 8
  %11 = getelementptr inbounds %struct.Aig_Man_t_, ptr %10, i32 0, i32 30
  %12 = load ptr, ptr %11, align 8
  %13 = load ptr, ptr %4, align 8
  %14 = getelementptr inbounds %struct.Aig_Obj_t_, ptr %13, i32 0, i32 5
  %15 = load i32, ptr %14, align 4
  %16 = sext i32 %15 to i64
  %17 = getelementptr inbounds ptr, ptr %12, i64 %16
  %18 = load ptr, ptr %17, align 8
  br label %20

19:                                               ; preds = %2
  br label %20

20:                                               ; preds = %19, %9
  %21 = phi ptr [ %18, %9 ], [ null, %19 ]
  ret ptr %21
}

; Function Attrs: nounwind uwtable
define internal ptr @Aig_ObjRepr(ptr noundef %0, ptr noundef %1) #0 {
  %3 = alloca ptr, align 8
  %4 = alloca ptr, align 8
  store ptr %0, ptr %3, align 8
  store ptr %1, ptr %4, align 8
  %5 = load ptr, ptr %3, align 8
  %6 = getelementptr inbounds %struct.Aig_Man_t_, ptr %5, i32 0, i32 31
  %7 = load ptr, ptr %6, align 8
  %8 = icmp ne ptr %7, null
  br i1 %8, label %9, label %19

9:                                                ; preds = %2
  %10 = load ptr, ptr %3, align 8
  %11 = getelementptr inbounds %struct.Aig_Man_t_, ptr %10, i32 0, i32 31
  %12 = load ptr, ptr %11, align 8
  %13 = load ptr, ptr %4, align 8
  %14 = getelementptr inbounds %struct.Aig_Obj_t_, ptr %13, i32 0, i32 5
  %15 = load i32, ptr %14, align 4
  %16 = sext i32 %15 to i64
  %17 = getelementptr inbounds ptr, ptr %12, i64 %16
  %18 = load ptr, ptr %17, align 8
  br label %20

19:                                               ; preds = %2
  br label %20

20:                                               ; preds = %19, %9
  %21 = phi ptr [ %18, %9 ], [ null, %19 ]
  ret ptr %21
}

; Function Attrs: nounwind uwtable
define internal ptr @Aig_ObjFanin1(ptr noundef %0) #0 {
  %2 = alloca ptr, align 8
  store ptr %0, ptr %2, align 8
  %3 = load ptr, ptr %2, align 8
  %4 = getelementptr inbounds %struct.Aig_Obj_t_, ptr %3, i32 0, i32 2
  %5 = load ptr, ptr %4, align 8
  %6 = call ptr @Aig_Regular(ptr noundef %5)
  ret ptr %6
}

; Function Attrs: nounwind uwtable
define internal i32 @Aig_ObjIsTravIdPrevious(ptr noundef %0, ptr noundef %1) #0 {
  %3 = alloca ptr, align 8
  %4 = alloca ptr, align 8
  store ptr %0, ptr %3, align 8
  store ptr %1, ptr %4, align 8
  %5 = load ptr, ptr %4, align 8
  %6 = getelementptr inbounds %struct.Aig_Obj_t_, ptr %5, i32 0, i32 4
  %7 = load i32, ptr %6, align 8
  %8 = load ptr, ptr %3, align 8
  %9 = getelementptr inbounds %struct.Aig_Man_t_, ptr %8, i32 0, i32 38
  %10 = load i32, ptr %9, align 8
  %11 = sub nsw i32 %10, 1
  %12 = icmp eq i32 %7, %11
  %13 = zext i1 %12 to i32
  ret i32 %13
}

; Function Attrs: nounwind uwtable
define internal ptr @Aig_ObjFanin0(ptr noundef %0) #0 {
  %2 = alloca ptr, align 8
  store ptr %0, ptr %2, align 8
  %3 = load ptr, ptr %2, align 8
  %4 = getelementptr inbounds %struct.Aig_Obj_t_, ptr %3, i32 0, i32 1
  %5 = load ptr, ptr %4, align 8
  %6 = call ptr @Aig_Regular(ptr noundef %5)
  ret ptr %6
}

; Function Attrs: nounwind uwtable
define internal void @Aig_ObjSetTravIdCurrent(ptr noundef %0, ptr noundef %1) #0 {
  %3 = alloca ptr, align 8
  %4 = alloca ptr, align 8
  store ptr %0, ptr %3, align 8
  store ptr %1, ptr %4, align 8
  %5 = load ptr, ptr %3, align 8
  %6 = getelementptr inbounds %struct.Aig_Man_t_, ptr %5, i32 0, i32 38
  %7 = load i32, ptr %6, align 8
  %8 = load ptr, ptr %4, align 8
  %9 = getelementptr inbounds %struct.Aig_Obj_t_, ptr %8, i32 0, i32 4
  store i32 %7, ptr %9, align 8
  ret void
}

; Function Attrs: nounwind uwtable
define internal i32 @Aig_ObjId(ptr noundef %0) #0 {
  %2 = alloca ptr, align 8
  store ptr %0, ptr %2, align 8
  %3 = load ptr, ptr %2, align 8
  %4 = getelementptr inbounds %struct.Aig_Obj_t_, ptr %3, i32 0, i32 5
  %5 = load i32, ptr %4, align 4
  ret i32 %5
}

; Function Attrs: nounwind uwtable
define internal i32 @Aig_ObjIsTravIdCurrent(ptr noundef %0, ptr noundef %1) #0 {
  %3 = alloca ptr, align 8
  %4 = alloca ptr, align 8
  store ptr %0, ptr %3, align 8
  store ptr %1, ptr %4, align 8
  %5 = load ptr, ptr %4, align 8
  %6 = getelementptr inbounds %struct.Aig_Obj_t_, ptr %5, i32 0, i32 4
  %7 = load i32, ptr %6, align 8
  %8 = load ptr, ptr %3, align 8
  %9 = getelementptr inbounds %struct.Aig_Man_t_, ptr %8, i32 0, i32 38
  %10 = load i32, ptr %9, align 8
  %11 = icmp eq i32 %7, %10
  %12 = zext i1 %11 to i32
  ret i32 %12
}

; Function Attrs: nounwind uwtable
define internal i32 @Aig_ObjIsConst1(ptr noundef %0) #0 {
  %2 = alloca ptr, align 8
  store ptr %0, ptr %2, align 8
  %3 = load ptr, ptr %2, align 8
  %4 = getelementptr inbounds %struct.Aig_Obj_t_, ptr %3, i32 0, i32 3
  %5 = load i64, ptr %4, align 8
  %6 = and i64 %5, 7
  %7 = trunc i64 %6 to i32
  %8 = icmp eq i32 %7, 1
  %9 = zext i1 %8 to i32
  ret i32 %9
}

; Function Attrs: nounwind uwtable
define internal i32 @Aig_ObjIsCi(ptr noundef %0) #0 {
  %2 = alloca ptr, align 8
  store ptr %0, ptr %2, align 8
  %3 = load ptr, ptr %2, align 8
  %4 = getelementptr inbounds %struct.Aig_Obj_t_, ptr %3, i32 0, i32 3
  %5 = load i64, ptr %4, align 8
  %6 = and i64 %5, 7
  %7 = trunc i64 %6 to i32
  %8 = icmp eq i32 %7, 2
  %9 = zext i1 %8 to i32
  ret i32 %9
}

; Function Attrs: nounwind uwtable
define i32 @Aig_ManCheckAcyclic_rec(ptr noundef %0, ptr noundef %1, i32 noundef %2) #0 {
  %4 = alloca i32, align 4
  %5 = alloca ptr, align 8
  %6 = alloca ptr, align 8
  %7 = alloca i32, align 4
  %8 = alloca ptr, align 8
  %9 = alloca i32, align 4
  store ptr %0, ptr %5, align 8
  store ptr %1, ptr %6, align 8
  store i32 %2, ptr %7, align 4
  %10 = load ptr, ptr %6, align 8
  %11 = call i32 @Aig_ObjIsCi(ptr noundef %10)
  %12 = icmp ne i32 %11, 0
  br i1 %12, label %17, label %13

13:                                               ; preds = %3
  %14 = load ptr, ptr %6, align 8
  %15 = call i32 @Aig_ObjIsConst1(ptr noundef %14)
  %16 = icmp ne i32 %15, 0
  br i1 %16, label %17, label %18

17:                                               ; preds = %13, %3
  store i32 1, ptr %4, align 4
  br label %140

18:                                               ; preds = %13
  %19 = load ptr, ptr %5, align 8
  %20 = load ptr, ptr %6, align 8
  %21 = call i32 @Aig_ObjIsTravIdCurrent(ptr noundef %19, ptr noundef %20)
  %22 = icmp ne i32 %21, 0
  br i1 %22, label %23, label %45

23:                                               ; preds = %18
  %24 = load i32, ptr %7, align 4
  %25 = icmp ne i32 %24, 0
  br i1 %25, label %26, label %38

26:                                               ; preds = %23
  %27 = load ptr, ptr %5, align 8
  %28 = getelementptr inbounds %struct.Aig_Man_t_, ptr %27, i32 0, i32 1
  %29 = load ptr, ptr %28, align 8
  %30 = icmp ne ptr %29, null
  br i1 %30, label %31, label %35

31:                                               ; preds = %26
  %32 = load ptr, ptr %5, align 8
  %33 = getelementptr inbounds %struct.Aig_Man_t_, ptr %32, i32 0, i32 1
  %34 = load ptr, ptr %33, align 8
  br label %36

35:                                               ; preds = %26
  br label %36

36:                                               ; preds = %35, %31
  %37 = phi ptr [ %34, %31 ], [ null, %35 ]
  call void (i32, ptr, ...) @Abc_Print(i32 noundef 1, ptr noundef @.str.12, ptr noundef %37)
  br label %38

38:                                               ; preds = %36, %23
  %39 = load i32, ptr %7, align 4
  %40 = icmp ne i32 %39, 0
  br i1 %40, label %41, label %44

41:                                               ; preds = %38
  %42 = load ptr, ptr %6, align 8
  %43 = call i32 @Aig_ObjId(ptr noundef %42)
  call void (i32, ptr, ...) @Abc_Print(i32 noundef 1, ptr noundef @.str.13, i32 noundef %43)
  br label %44

44:                                               ; preds = %41, %38
  store i32 0, ptr %4, align 4
  br label %140

45:                                               ; preds = %18
  %46 = load ptr, ptr %5, align 8
  %47 = load ptr, ptr %6, align 8
  call void @Aig_ObjSetTravIdCurrent(ptr noundef %46, ptr noundef %47)
  %48 = load ptr, ptr %6, align 8
  %49 = call ptr @Aig_ObjFanin0(ptr noundef %48)
  store ptr %49, ptr %8, align 8
  %50 = load ptr, ptr %5, align 8
  %51 = load ptr, ptr %8, align 8
  %52 = call i32 @Aig_ObjIsTravIdPrevious(ptr noundef %50, ptr noundef %51)
  %53 = icmp ne i32 %52, 0
  br i1 %53, label %68, label %54

54:                                               ; preds = %45
  %55 = load ptr, ptr %5, align 8
  %56 = load ptr, ptr %8, align 8
  %57 = load i32, ptr %7, align 4
  %58 = call i32 @Aig_ManCheckAcyclic_rec(ptr noundef %55, ptr noundef %56, i32 noundef %57)
  store i32 %58, ptr %9, align 4
  %59 = icmp ne i32 %58, 0
  br i1 %59, label %67, label %60

60:                                               ; preds = %54
  %61 = load i32, ptr %7, align 4
  %62 = icmp ne i32 %61, 0
  br i1 %62, label %63, label %66

63:                                               ; preds = %60
  %64 = load ptr, ptr %8, align 8
  %65 = call i32 @Aig_ObjId(ptr noundef %64)
  call void (i32, ptr, ...) @Abc_Print(i32 noundef 1, ptr noundef @.str.14, i32 noundef %65)
  br label %66

66:                                               ; preds = %63, %60
  store i32 0, ptr %4, align 4
  br label %140

67:                                               ; preds = %54
  br label %68

68:                                               ; preds = %67, %45
  %69 = load ptr, ptr %6, align 8
  %70 = call ptr @Aig_ObjFanin1(ptr noundef %69)
  store ptr %70, ptr %8, align 8
  %71 = load ptr, ptr %5, align 8
  %72 = load ptr, ptr %8, align 8
  %73 = call i32 @Aig_ObjIsTravIdPrevious(ptr noundef %71, ptr noundef %72)
  %74 = icmp ne i32 %73, 0
  br i1 %74, label %89, label %75

75:                                               ; preds = %68
  %76 = load ptr, ptr %5, align 8
  %77 = load ptr, ptr %8, align 8
  %78 = load i32, ptr %7, align 4
  %79 = call i32 @Aig_ManCheckAcyclic_rec(ptr noundef %76, ptr noundef %77, i32 noundef %78)
  store i32 %79, ptr %9, align 4
  %80 = icmp ne i32 %79, 0
  br i1 %80, label %88, label %81

81:                                               ; preds = %75
  %82 = load i32, ptr %7, align 4
  %83 = icmp ne i32 %82, 0
  br i1 %83, label %84, label %87

84:                                               ; preds = %81
  %85 = load ptr, ptr %8, align 8
  %86 = call i32 @Aig_ObjId(ptr noundef %85)
  call void (i32, ptr, ...) @Abc_Print(i32 noundef 1, ptr noundef @.str.14, i32 noundef %86)
  br label %87

87:                                               ; preds = %84, %81
  store i32 0, ptr %4, align 4
  br label %140

88:                                               ; preds = %75
  br label %89

89:                                               ; preds = %88, %68
  %90 = load ptr, ptr %5, align 8
  %91 = load ptr, ptr %6, align 8
  %92 = call ptr @Aig_ObjRepr(ptr noundef %90, ptr noundef %91)
  %93 = icmp eq ptr %92, null
  br i1 %93, label %94, label %137

94:                                               ; preds = %89
  %95 = load ptr, ptr %5, align 8
  %96 = load ptr, ptr %6, align 8
  %97 = call ptr @Aig_ObjEquiv(ptr noundef %95, ptr noundef %96)
  %98 = icmp ne ptr %97, null
  br i1 %98, label %99, label %137

99:                                               ; preds = %94
  %100 = load ptr, ptr %5, align 8
  %101 = load ptr, ptr %6, align 8
  %102 = call ptr @Aig_ObjEquiv(ptr noundef %100, ptr noundef %101)
  store ptr %102, ptr %8, align 8
  br label %103

103:                                              ; preds = %132, %99
  %104 = load ptr, ptr %8, align 8
  %105 = icmp ne ptr %104, null
  br i1 %105, label %106, label %136

106:                                              ; preds = %103
  %107 = load ptr, ptr %5, align 8
  %108 = load ptr, ptr %8, align 8
  %109 = call i32 @Aig_ObjIsTravIdPrevious(ptr noundef %107, ptr noundef %108)
  %110 = icmp ne i32 %109, 0
  br i1 %110, label %111, label %112

111:                                              ; preds = %106
  br label %132

112:                                              ; preds = %106
  %113 = load ptr, ptr %5, align 8
  %114 = load ptr, ptr %8, align 8
  %115 = load i32, ptr %7, align 4
  %116 = call i32 @Aig_ManCheckAcyclic_rec(ptr noundef %113, ptr noundef %114, i32 noundef %115)
  store i32 %116, ptr %9, align 4
  %117 = icmp ne i32 %116, 0
  br i1 %117, label %118, label %119

118:                                              ; preds = %112
  br label %132

119:                                              ; preds = %112
  %120 = load i32, ptr %7, align 4
  %121 = icmp ne i32 %120, 0
  br i1 %121, label %122, label %125

122:                                              ; preds = %119
  %123 = load ptr, ptr %8, align 8
  %124 = call i32 @Aig_ObjId(ptr noundef %123)
  call void (i32, ptr, ...) @Abc_Print(i32 noundef 1, ptr noundef @.str.15, i32 noundef %124)
  br label %125

125:                                              ; preds = %122, %119
  %126 = load i32, ptr %7, align 4
  %127 = icmp ne i32 %126, 0
  br i1 %127, label %128, label %131

128:                                              ; preds = %125
  %129 = load ptr, ptr %6, align 8
  %130 = call i32 @Aig_ObjId(ptr noundef %129)
  call void (i32, ptr, ...) @Abc_Print(i32 noundef 1, ptr noundef @.str.16, i32 noundef %130)
  br label %131

131:                                              ; preds = %128, %125
  store i32 0, ptr %4, align 4
  br label %140

132:                                              ; preds = %118, %111
  %133 = load ptr, ptr %5, align 8
  %134 = load ptr, ptr %8, align 8
  %135 = call ptr @Aig_ObjEquiv(ptr noundef %133, ptr noundef %134)
  store ptr %135, ptr %8, align 8
  br label %103, !llvm.loop !10

136:                                              ; preds = %103
  br label %137

137:                                              ; preds = %136, %94, %89
  %138 = load ptr, ptr %5, align 8
  %139 = load ptr, ptr %6, align 8
  call void @Aig_ObjSetTravIdPrevious(ptr noundef %138, ptr noundef %139)
  store i32 1, ptr %4, align 4
  br label %140

140:                                              ; preds = %137, %131, %87, %66, %44, %17
  %141 = load i32, ptr %4, align 4
  ret i32 %141
}