; Function Attrs: nounwind uwtable
define range(i32 0, 2) i32 @Aig_ManCheckAcyclic_rec(ptr noundef %0, ptr noundef captures(none) %1, i32 noundef %2) local_unnamed_addr #1 {
  %4 = getelementptr i8, ptr %1, i64 24
  %.val68 = load i64, ptr %4, align 8
  %5 = and i64 %.val68, 7
  %.off = add nsw i64 %5, -1
  %switch = icmp ult i64 %.off, 2
  br i1 %switch, label %.critedge, label %6

6:                                                ; preds = %3
  %7 = getelementptr i8, ptr %0, i64 312
  %.val = load i32, ptr %7, align 8
  %8 = getelementptr i8, ptr %1, i64 32
  %.val66 = load i32, ptr %8, align 8
  %.not94 = icmp eq i32 %.val66, %.val
  br i1 %.not94, label %9, label %14

9:                                                ; preds = %6
  %.not62 = icmp eq i32 %2, 0
  br i1 %.not62, label %.critedge, label %10

10:                                               ; preds = %9
  %11 = getelementptr inbounds nuw i8, ptr %0, i64 8
  %12 = load ptr, ptr %11, align 8
  tail call void (i32, ptr, ...) @Abc_Print(i32 poison, ptr noundef nonnull @.str.12, ptr noundef %12)
  %13 = getelementptr i8, ptr %1, i64 36
  %.val84 = load i32, ptr %13, align 4
  tail call void (i32, ptr, ...) @Abc_Print(i32 poison, ptr noundef nonnull @.str.13, i32 noundef %.val84)
  br label %.critedge

14:                                               ; preds = %6
  store i32 %.val, ptr %8, align 8
  %15 = getelementptr i8, ptr %1, i64 8
  %.val69 = load ptr, ptr %15, align 8
  %16 = ptrtoint ptr %.val69 to i64
  %17 = and i64 %16, -2
  %18 = inttoptr i64 %17 to ptr
  %.val78 = load i32, ptr %7, align 8
  %19 = getelementptr i8, ptr %18, i64 32
  %.val79 = load i32, ptr %19, align 8
  %20 = add nsw i32 %.val78, -1
  %.not95 = icmp eq i32 %.val79, %20
  br i1 %.not95, label %26, label %21

21:                                               ; preds = %14
  %22 = tail call i32 @Aig_ManCheckAcyclic_rec(ptr noundef nonnull %0, ptr noundef nonnull %18, i32 noundef %2)
  %.not52 = icmp eq i32 %22, 0
  br i1 %.not52, label %23, label %._crit_edge

._crit_edge:                                      ; preds = %21
  %.val76.pre = load i32, ptr %7, align 8
  %.pre = add nsw i32 %.val76.pre, -1
  br label %26

23:                                               ; preds = %21
  %.not53 = icmp eq i32 %2, 0
  br i1 %.not53, label %.critedge, label %24

24:                                               ; preds = %23
  %25 = getelementptr i8, ptr %18, i64 36
  %.val83 = load i32, ptr %25, align 4
  tail call void (i32, ptr, ...) @Abc_Print(i32 poison, ptr noundef nonnull @.str.14, i32 noundef %.val83)
  br label %.critedge

26:                                               ; preds = %._crit_edge, %14
  %.pre-phi = phi i32 [ %.pre, %._crit_edge ], [ %20, %14 ]
  %27 = getelementptr i8, ptr %1, i64 16
  %.val70 = load ptr, ptr %27, align 8
  %28 = ptrtoint ptr %.val70 to i64
  %29 = and i64 %28, -2
  %30 = inttoptr i64 %29 to ptr
  %31 = getelementptr i8, ptr %30, i64 32
  %.val77 = load i32, ptr %31, align 8
  %.not96 = icmp eq i32 %.val77, %.pre-phi
  br i1 %.not96, label %37, label %32

32:                                               ; preds = %26
  %33 = tail call i32 @Aig_ManCheckAcyclic_rec(ptr noundef nonnull %0, ptr noundef nonnull %30, i32 noundef %2)
  %.not55 = icmp eq i32 %33, 0
  br i1 %.not55, label %34, label %37

34:                                               ; preds = %32
  %.not56 = icmp eq i32 %2, 0
  br i1 %.not56, label %.critedge, label %35

35:                                               ; preds = %34
  %36 = getelementptr i8, ptr %30, i64 36
  %.val82 = load i32, ptr %36, align 4
  tail call void (i32, ptr, ...) @Abc_Print(i32 poison, ptr noundef nonnull @.str.14, i32 noundef %.val82)
  br label %.critedge

37:                                               ; preds = %32, %26
  %38 = getelementptr i8, ptr %0, i64 256
  %.val71 = load ptr, ptr %38, align 8
  %.not.i = icmp eq ptr %.val71, null
  br i1 %.not.i, label %Aig_ObjRepr.exit.thread, label %Aig_ObjRepr.exit

Aig_ObjRepr.exit:                                 ; preds = %37
  %39 = getelementptr inbounds nuw i8, ptr %1, i64 36
  %40 = load i32, ptr %39, align 4
  %41 = sext i32 %40 to i64
  %42 = getelementptr inbounds ptr, ptr %.val71, i64 %41
  %43 = load ptr, ptr %42, align 8
  %44 = icmp eq ptr %43, null
  br i1 %44, label %Aig_ObjRepr.exit.thread, label %Aig_ObjEquiv.exit.thread

Aig_ObjRepr.exit.thread:                          ; preds = %37, %Aig_ObjRepr.exit
  %45 = getelementptr i8, ptr %0, i64 248
  %.val74 = load ptr, ptr %45, align 8
  %.not.i87 = icmp eq ptr %.val74, null
  br i1 %.not.i87, label %Aig_ObjEquiv.exit.thread, label %Aig_ObjEquiv.exit

Aig_ObjEquiv.exit:                                ; preds = %Aig_ObjRepr.exit.thread
  %46 = getelementptr i8, ptr %1, i64 36
  %47 = load i32, ptr %46, align 4
  %48 = sext i32 %47 to i64
  %49 = getelementptr inbounds ptr, ptr %.val74, i64 %48
  %50 = load ptr, ptr %49, align 8
  %.not57 = icmp eq ptr %50, null
  br i1 %.not57, label %Aig_ObjEquiv.exit.thread, label %.lr.ph

.lr.ph:                                           ; preds = %Aig_ObjEquiv.exit, %Aig_ObjEquiv.exit91
  %.val72104 = phi ptr [ %.val72, %Aig_ObjEquiv.exit91 ], [ %.val74, %Aig_ObjEquiv.exit ]
  %.0100 = phi ptr [ %63, %Aig_ObjEquiv.exit91 ], [ %50, %Aig_ObjEquiv.exit ]
  %.val75 = load i32, ptr %7, align 8
  %51 = getelementptr i8, ptr %.0100, i64 32
  %.0.val = load i32, ptr %51, align 8
  %52 = add nsw i32 %.val75, -1
  %.not97 = icmp eq i32 %.0.val, %52
  br i1 %.not97, label %58, label %53

53:                                               ; preds = %.lr.ph
  %54 = tail call i32 @Aig_ManCheckAcyclic_rec(ptr noundef nonnull %0, ptr noundef nonnull %.0100, i32 noundef %2)
  %.not60 = icmp eq i32 %54, 0
  br i1 %.not60, label %55, label %._crit_edge103

._crit_edge103:                                   ; preds = %53
  %.val72.pre = load ptr, ptr %45, align 8
  br label %58

55:                                               ; preds = %53
  %.not61 = icmp eq i32 %2, 0
  br i1 %.not61, label %.critedge, label %56

56:                                               ; preds = %55
  %57 = getelementptr i8, ptr %.0100, i64 36
  %.0.val81 = load i32, ptr %57, align 4
  tail call void (i32, ptr, ...) @Abc_Print(i32 poison, ptr noundef nonnull @.str.15, i32 noundef %.0.val81)
  %.val80 = load i32, ptr %46, align 4
  tail call void (i32, ptr, ...) @Abc_Print(i32 poison, ptr noundef nonnull @.str.16, i32 noundef %.val80)
  br label %.critedge

58:                                               ; preds = %._crit_edge103, %.lr.ph
  %.val72 = phi ptr [ %.val72.pre, %._crit_edge103 ], [ %.val72104, %.lr.ph ]
  %.not.i90 = icmp eq ptr %.val72, null
  br i1 %.not.i90, label %Aig_ObjEquiv.exit.thread, label %Aig_ObjEquiv.exit91

Aig_ObjEquiv.exit91:                              ; preds = %58
  %59 = getelementptr inbounds nuw i8, ptr %.0100, i64 36
  %60 = load i32, ptr %59, align 4
  %61 = sext i32 %60 to i64
  %62 = getelementptr inbounds ptr, ptr %.val72, i64 %61
  %63 = load ptr, ptr %62, align 8
  %.not58 = icmp eq ptr %63, null
  br i1 %.not58, label %Aig_ObjEquiv.exit.thread, label %.lr.ph, !llvm.loop !9

Aig_ObjEquiv.exit.thread:                         ; preds = %58, %Aig_ObjEquiv.exit91, %Aig_ObjRepr.exit.thread, %Aig_ObjEquiv.exit, %Aig_ObjRepr.exit
  %.val86 = load i32, ptr %7, align 8
  %64 = add nsw i32 %.val86, -1
  store i32 %64, ptr %8, align 8
  br label %.critedge

.critedge:                                        ; preds = %3, %56, %55, %34, %35, %23, %24, %10, %9, %Aig_ObjEquiv.exit.thread
  %.047 = phi i32 [ 1, %Aig_ObjEquiv.exit.thread ], [ 0, %9 ], [ 0, %10 ], [ 0, %24 ], [ 0, %23 ], [ 0, %35 ], [ 0, %34 ], [ 0, %55 ], [ 0, %56 ], [ 1, %3 ]
  ret i32 %.047
}